target datalayout = "e-m:e-p270:32:32-p271:32:32-p272:64:64-i64:64-i128:128-f80:128-n8:16:32:64-S128"
target triple = "x86_64-pc-linux-gnu"

%"class.base::PersistentSparseHistogramDataManager" = type { ptr, %"class.base::PersistentMemoryAllocator::Iterator", %"class.std::map", %"class.base::Lock" }
%"class.base::PersistentMemoryAllocator::Iterator" = type { ptr, %"struct.std::atomic", %"struct.std::atomic" }
%"struct.std::atomic" = type { %"struct.std::__atomic_base" }
%"struct.std::__atomic_base" = type { i32 }
%"class.std::map" = type { %"class.std::_Rb_tree" }
%"class.std::_Rb_tree" = type { %"struct.std::_Rb_tree<unsigned long, std::pair<const unsigned long, std::unique_ptr<base::PersistentSampleMapRecords>>, std::_Select1st<std::pair<const unsigned long, std::unique_ptr<base::PersistentSampleMapRecords>>>, std::less<unsigned long>>::_Rb_tree_impl" }
%"struct.std::_Rb_tree<unsigned long, std::pair<const unsigned long, std::unique_ptr<base::PersistentSampleMapRecords>>, std::_Select1st<std::pair<const unsigned long, std::unique_ptr<base::PersistentSampleMapRecords>>>, std::less<unsigned long>>::_Rb_tree_impl" = type { [8 x i8], %"struct.std::_Rb_tree_header" }
%"struct.std::_Rb_tree_header" = type { %"struct.std::_Rb_tree_node_base", i64 }
%"struct.std::_Rb_tree_node_base" = type { i32, ptr, ptr, ptr }
%"class.base::Lock" = type { %"class.base::internal::LockImpl" }
%"class.base::internal::LockImpl" = type { %union.pthread_mutex_t }
%union.pthread_mutex_t = type { %struct.__pthread_mutex_s }
%struct.__pthread_mutex_s = type { i32, i32, i32, i32, i32, i16, i16, %struct.__pthread_internal_list }
%struct.__pthread_internal_list = type { ptr, ptr }
%"class.base::PersistentHistogramAllocator" = type <{ ptr, %"class.std::unique_ptr.9", %"class.base::PersistentSparseHistogramDataManager", i32, [4 x i8] }>
%"class.std::unique_ptr.9" = type { %"struct.std::__uniq_ptr_data.10" }
%"struct.std::__uniq_ptr_data.10" = type { %"class.std::__uniq_ptr_impl.11" }
%"class.std::__uniq_ptr_impl.11" = type { %"class.std::tuple.12" }
%"class.std::tuple.12" = type { %"struct.std::_Tuple_impl.13" }
%"struct.std::_Tuple_impl.13" = type { %"struct.std::_Head_base.16" }
%"struct.std::_Head_base.16" = type { ptr }

; Function Attrs: mustprogress nounwind uwtable
define linkonce_odr noundef nonnull align 8 dereferenceable(8) ptr @_ZNSt10_Head_baseILm0EPN4base25PersistentMemoryAllocatorELb0EE7_M_headERKS3_(ptr noundef nonnull align 8 dereferenceable(8) %0) #2 comdat align 2 {
  %2 = alloca ptr, align 8
  store ptr %0, ptr %2, align 8, !tbaa !275
  %3 = load ptr, ptr %2, align 8, !tbaa !275
  %4 = getelementptr inbounds nuw %"struct.std::_Head_base.16", ptr %3, i32 0, i32 0
  ret ptr %4
}

; Function Attrs: mustprogress nounwind uwtable
define linkonce_odr noundef nonnull align 8 dereferenceable(8) ptr @_ZNSt11_Tuple_implILm0EJPN4base25PersistentMemoryAllocatorESt14default_deleteIS1_EEE7_M_headERKS5_(ptr noundef nonnull align 8 dereferenceable(8) %0) #2 comdat align 2 {
  %2 = alloca ptr, align 8
  store ptr %0, ptr %2, align 8, !tbaa !270
  %3 = load ptr, ptr %2, align 8, !tbaa !270
  %4 = call noundef nonnull align 8 dereferenceable(8) ptr @_ZNSt10_Head_baseILm0EPN4base25PersistentMemoryAllocatorELb0EE7_M_headERKS3_(ptr noundef nonnull align 8 dereferenceable(8) %3) #17
  ret ptr %4
}

; Function Attrs: mustprogress nounwind uwtable
define linkonce_odr noundef nonnull align 8 dereferenceable(8) ptr @_ZSt12__get_helperILm0EPN4base25PersistentMemoryAllocatorEJSt14default_deleteIS1_EEERKT0_RKSt11_Tuple_implIXT_EJS5_DpT1_EE(ptr noundef nonnull align 8 dereferenceable(8) %0) #2 comdat {
  %2 = alloca ptr, align 8
  store ptr %0, ptr %2, align 8, !tbaa !270
  %3 = load ptr, ptr %2, align 8, !tbaa !270
  %4 = call noundef nonnull align 8 dereferenceable(8) ptr @_ZNSt11_Tuple_implILm0EJPN4base25PersistentMemoryAllocatorESt14default_deleteIS1_EEE7_M_headERKS5_(ptr noundef nonnull align 8 dereferenceable(8) %3) #17
  ret ptr %4
}

; Function Attrs: mustprogress nounwind uwtable
define linkonce_odr noundef nonnull align 8 dereferenceable(8) ptr @_ZSt3getILm0EJPN4base25PersistentMemoryAllocatorESt14default_deleteIS1_EEERKNSt13tuple_elementIXT_ESt5tupleIJDpT0_EEE4typeERKS9_(ptr noundef nonnull align 8 dereferenceable(8) %0) #2 comdat {
  %2 = alloca ptr, align 8
  store ptr %0, ptr %2, align 8, !tbaa !268
  %3 = load ptr, ptr %2, align 8, !tbaa !268
  %4 = call noundef nonnull align 8 dereferenceable(8) ptr @_ZSt12__get_helperILm0EPN4base25PersistentMemoryAllocatorEJSt14default_deleteIS1_EEERKT0_RKSt11_Tuple_implIXT_EJS5_DpT1_EE(ptr noundef nonnull align 8 dereferenceable(8) %3) #17
  ret ptr %4
}

; Function Attrs: mustprogress nounwind uwtable
define linkonce_odr noundef ptr @_ZNKSt15__uniq_ptr_implIN4base25PersistentMemoryAllocatorESt14default_deleteIS1_EE6_M_ptrEv(ptr noundef nonnull align 8 dereferenceable(8) %0) #2 comdat align 2 {
  %2 = alloca ptr, align 8
  store ptr %0, ptr %2, align 8, !tbaa !266
  %3 = load ptr, ptr %2, align 8
  %4 = getelementptr inbounds nuw %"class.std::__uniq_ptr_impl.11", ptr %3, i32 0, i32 0
  %5 = call noundef nonnull align 8 dereferenceable(8) ptr @_ZSt3getILm0EJPN4base25PersistentMemoryAllocatorESt14default_deleteIS1_EEERKNSt13tuple_elementIXT_ESt5tupleIJDpT0_EEE4typeERKS9_(ptr noundef nonnull align 8 dereferenceable(8) %4) #17
  %6 = load ptr, ptr %5, align 8, !tbaa !8
  ret ptr %6
}

; Function Attrs: mustprogress nounwind uwtable
define linkonce_odr noundef ptr @_ZNKSt10unique_ptrIN4base25PersistentMemoryAllocatorESt14default_deleteIS1_EE3getEv(ptr noundef nonnull align 8 dereferenceable(8) %0) #2 comdat align 2 {
  %2 = alloca ptr, align 8
  store ptr %0, ptr %2, align 8, !tbaa !106
  %3 = load ptr, ptr %2, align 8
  %4 = getelementptr inbounds nuw %"class.std::unique_ptr.9", ptr %3, i32 0, i32 0
  %5 = call noundef ptr @_ZNKSt15__uniq_ptr_implIN4base25PersistentMemoryAllocatorESt14default_deleteIS1_EE6_M_ptrEv(ptr noundef nonnull align 8 dereferenceable(8) %4) #17
  ret ptr %5
}

; Function Attrs: mustprogress nounwind uwtable
define linkonce_odr noundef ptr @_ZNKSt10unique_ptrIN4base25PersistentMemoryAllocatorESt14default_deleteIS1_EEptEv(ptr noundef nonnull align 8 dereferenceable(8) %0) #2 comdat align 2 {
  %2 = alloca ptr, align 8
  store ptr %0, ptr %2, align 8, !tbaa !106
  %3 = load ptr, ptr %2, align 8
  %4 = call noundef ptr @_ZNKSt10unique_ptrIN4base25PersistentMemoryAllocatorESt14default_deleteIS1_EE3getEv(ptr noundef nonnull align 8 dereferenceable(8) %3) #17
  ret ptr %4
}

; Function Attrs: mustprogress uwtable
define void @_ZN4base28PersistentHistogramAllocator17FinalizeHistogramEjb(ptr noundef nonnull align 8 dereferenceable(132) %0, i32 noundef %1, i1 noundef zeroext %2) #0 align 2 {
  %4 = alloca ptr, align 8
  %5 = alloca i32, align 4
  %6 = alloca i8, align 1
  store ptr %0, ptr %4, align 8, !tbaa !94
  store i32 %1, ptr %5, align 4, !tbaa !64
  %7 = zext i1 %2 to i8
  store i8 %7, ptr %6, align 1, !tbaa !62
  %8 = load ptr, ptr %4, align 8
  %9 = load i8, ptr %6, align 1, !tbaa !62, !range !66, !noundef !67
  %10 = trunc i8 %9 to i1
  br i1 %10, label %11, label %15

11:                                               ; preds = %3
  %12 = getelementptr inbounds nuw %"class.base::PersistentHistogramAllocator", ptr %8, i32 0, i32 1
  %13 = call noundef ptr @_ZNKSt10unique_ptrIN4base25PersistentMemoryAllocatorESt14default_deleteIS1_EEptEv(ptr noundef nonnull align 8 dereferenceable(8) %12) #17
  %14 = load i32, ptr %5, align 4, !tbaa !64
  call void @_ZN4base25PersistentMemoryAllocator12MakeIterableEj(ptr noundef nonnull align 8 dereferenceable(48) %13, i32 noundef %14)
  br label %20

15:                                               ; preds = %3
  %16 = getelementptr inbounds nuw %"class.base::PersistentHistogramAllocator", ptr %8, i32 0, i32 1
  %17 = call noundef ptr @_ZNKSt10unique_ptrIN4base25PersistentMemoryAllocatorESt14default_deleteIS1_EEptEv(ptr noundef nonnull align 8 dereferenceable(8) %16) #17
  %18 = load i32, ptr %5, align 4, !tbaa !64
  %19 = call noundef zeroext i1 @_ZN4base25PersistentMemoryAllocator10ChangeTypeEjjj(ptr noundef nonnull align 8 dereferenceable(48) %17, i32 noundef %18, i32 noundef 0, i32 noundef -245081838)
  br label %20

20:                                               ; preds = %15, %11
  ret void
}