; Function Attrs: mustprogress uwtable
define void @_ZN4base28PersistentHistogramAllocator17FinalizeHistogramEjb(ptr noundef nonnull readonly align 8 captures(none) dereferenceable(132) %0, i32 noundef %1, i1 noundef zeroext %2) local_unnamed_addr #0 align 2 {
  %4 = getelementptr inbounds nuw i8, ptr %0, i64 8
  %5 = load ptr, ptr %4, align 8, !tbaa !61
  br i1 %2, label %6, label %7

6:                                                ; preds = %3
  tail call void @_ZN4base25PersistentMemoryAllocator12MakeIterableEj(ptr noundef nonnull align 8 dereferenceable(48) %5, i32 noundef %1)
  br label %9

7:                                                ; preds = %3
  %8 = tail call noundef zeroext i1 @_ZN4base25PersistentMemoryAllocator10ChangeTypeEjjj(ptr noundef nonnull align 8 dereferenceable(48) %5, i32 noundef %1, i32 noundef 0, i32 noundef -245081838)
  br label %9

9:                                                ; preds = %7, %6
  ret void
}